target datalayout = "e-m:e-p270:32:32-p271:32:32-p272:64:64-i64:64-i128:128-f80:128-n8:16:32:64-S128"
target triple = "x86_64-pc-linux-gnu"

%struct.camelsrt_info_t = type { i32, ptr, i8, [10 x i8], [10 x %struct.camelsrt_msginfo_t] }
%struct.camelsrt_msginfo_t = type { i8, i8, i8, %struct.nstime_t, %struct.nstime_t }
%struct.nstime_t = type { i64, i32 }
%struct.tcaphash_context_t = type { ptr, i32, i32, i32, %struct.nstime_t, %struct.nstime_t, i8, i8, i8, i8, [24 x i8], i8, ptr, ptr, ptr, ptr, ptr, ptr }
%struct._packet_info = type { ptr, ptr, i32, i32, %struct.nstime_t, %struct.nstime_t, %struct.nstime_t, i8, ptr, ptr, ptr, ptr, %struct._address, %struct._address, %struct._address, %struct._address, %struct._address, %struct._address, i32, ptr, i8, [3 x i8], %struct.anon.0, i32, i32, i32, i32, ptr, i8, ptr, ptr, i16, i16, i32, i32, i16, i32, i32, ptr, ptr, ptr, i8, i8, i16, i16, i16, i32, i16, i16, ptr, ptr, ptr, ptr, ptr, i32, i32 }
%struct._address = type { i32, i32, ptr, ptr }
%struct.anon.0 = type { i8, [3 x i8] }
%struct._asn1_ctx_t = type { i32, i32, i8, ptr, ptr, ptr, ptr, ptr, %struct.anon.1, %struct.anon.4, %struct.anon.5, ptr }
%struct.anon.1 = type { i32, i8, i8, i8, ptr, ptr, i32, i32, ptr, ptr, ptr, %union.anon }
%union.anon = type { %struct.anon.2 }
%struct.anon.2 = type { ptr }
%struct.anon.4 = type { ptr, ptr, ptr }
%struct.anon.5 = type { i32, i8, ptr, i32, i32, ptr, ptr, ptr, %union.anon.6 }
%union.anon.6 = type { %struct.anon.7 }
%struct.anon.7 = type { ptr }
%struct.tcap_private_t = type { i8, ptr, i32, ptr, ptr, i32, i32 }

@camelsrt_global_current = internal global i32 0, align 4
@camelsrt_global_info = internal global [10 x %struct.camelsrt_info_t] zeroinitializer, align 16
@proto_camel = internal global i32 0, align 4
@ett_camel = internal global i32 0, align 4
@ett_camel_stat = internal global i32 0, align 4
@ett_camel_ROS = internal global i32 0, align 4
@camel_tap = internal global i32 0, align 4
@is_ExtensionField = hidden global i8 0, align 1
@gcamel_DisplaySRT = internal global i8 0, align 1
@camel_ver = internal global i32 0, align 4
@.str.1475 = private unnamed_addr constant [3 x i8] c"%s\00", align 1
@gp_camelsrt_info = internal global ptr null, align 8
@.str.1476 = private unnamed_addr constant [5 x i8] c"Stat\00", align 1
@opcode = internal global i32 0, align 4
@camel_pdu_type = internal global i8 0, align 1
@camel_pdu_size = internal global i8 0, align 1
@.str.1477 = private unnamed_addr constant [19 x i8] c"Unknown Camel (%u)\00", align 1
@.str.1478 = private unnamed_addr constant [2 x i8] c" \00", align 1

; Function Attrs: null_pointer_is_valid sspstrong uwtable
define internal i32 @dissect_camel_ROS(i1 noundef zeroext %0, ptr noundef %1, i32 noundef %2, ptr noundef %3, ptr noundef %4, i32 noundef %5) #0 {
  %7 = alloca i8, align 1
  %8 = alloca ptr, align 8
  %9 = alloca i32, align 4
  %10 = alloca ptr, align 8
  %11 = alloca ptr, align 8
  %12 = alloca i32, align 4
  %13 = zext i1 %0 to i8
  store i8 %13, ptr %7, align 1
  store ptr %1, ptr %8, align 8
  store i32 %2, ptr %9, align 4
  store ptr %3, ptr %10, align 8
  store ptr %4, ptr %11, align 8
  store i32 %5, ptr %12, align 4
  %14 = load ptr, ptr %10, align 8
  %15 = load ptr, ptr %11, align 8
  %16 = load ptr, ptr %8, align 8
  %17 = load i32, ptr %9, align 4
  %18 = load i32, ptr %12, align 4
  %19 = load i32, ptr @ett_camel_ROS, align 4
  %20 = call i32 @dissect_ber_choice(ptr noundef %14, ptr noundef %15, ptr noundef %16, i32 noundef %17, ptr noundef @ROS_choice, i32 noundef %18, i32 noundef %19, ptr noundef null)
  store i32 %20, ptr %9, align 4
  %21 = load i32, ptr %9, align 4
  ret i32 %21
}

; Function Attrs: alwaysinline nounwind
define internal ptr @memset.inline(ptr %0, i32 %1, i64 %2) #4 {
  %4 = alloca ptr, align 8
  %5 = alloca i32, align 4
  %6 = alloca i64, align 8
  store ptr %0, ptr %4, align 8
  store i32 %1, ptr %5, align 4
  store i64 %2, ptr %6, align 8
  %7 = load ptr, ptr %4, align 8
  %8 = load i32, ptr %5, align 4
  %9 = load i64, ptr %6, align 8
  %10 = load ptr, ptr %4, align 8
  %11 = call i64 @llvm.objectsize.i64.p0(ptr %10, i1 false, i1 true, i1 true)
  %12 = call ptr @__memset_chk(ptr noundef %7, i32 noundef %8, i64 noundef %9, i64 noundef %11) #11
  ret ptr %12
}

; Function Attrs: null_pointer_is_valid sspstrong uwtable
define internal i32 @dissect_camel_camelPDU(i1 noundef zeroext %0, ptr noundef %1, i32 noundef %2, ptr noundef %3, ptr noundef %4, i32 noundef %5, ptr noundef %6) #0 {
  %8 = alloca i8, align 1
  %9 = alloca ptr, align 8
  %10 = alloca i32, align 4
  %11 = alloca ptr, align 8
  %12 = alloca ptr, align 8
  %13 = alloca i32, align 4
  %14 = alloca ptr, align 8
  %15 = zext i1 %0 to i8
  store i8 %15, ptr %8, align 1
  store ptr %1, ptr %9, align 8
  store i32 %2, ptr %10, align 4
  store ptr %3, ptr %11, align 8
  store ptr %4, ptr %12, align 8
  store i32 %5, ptr %13, align 4
  store ptr %6, ptr %14, align 8
  store i32 0, ptr @opcode, align 4
  %16 = load ptr, ptr %14, align 8
  %17 = icmp ne ptr %16, null
  br i1 %17, label %18, label %37

18:                                               ; preds = %7
  %19 = load ptr, ptr %14, align 8
  %20 = getelementptr inbounds nuw %struct.tcap_private_t, ptr %19, i32 0, i32 3
  %21 = load ptr, ptr %20, align 8
  %22 = load ptr, ptr @gp_camelsrt_info, align 8
  %23 = getelementptr inbounds nuw %struct.camelsrt_info_t, ptr %22, i32 0, i32 1
  store ptr %21, ptr %23, align 8
  %24 = load ptr, ptr %14, align 8
  %25 = getelementptr inbounds nuw %struct.tcap_private_t, ptr %24, i32 0, i32 3
  %26 = load ptr, ptr %25, align 8
  %27 = icmp ne ptr %26, null
  br i1 %27, label %28, label %36

28:                                               ; preds = %18
  %29 = load ptr, ptr %14, align 8
  %30 = getelementptr inbounds nuw %struct.tcap_private_t, ptr %29, i32 0, i32 3
  %31 = load ptr, ptr %30, align 8
  %32 = getelementptr inbounds nuw %struct.tcaphash_context_t, ptr %31, i32 0, i32 1
  %33 = load i32, ptr %32, align 8
  %34 = load ptr, ptr @gp_camelsrt_info, align 8
  %35 = getelementptr inbounds nuw %struct.camelsrt_info_t, ptr %34, i32 0, i32 0
  store i32 %33, ptr %35, align 8
  br label %36

36:                                               ; preds = %28, %18
  br label %37

37:                                               ; preds = %36, %7
  %38 = load ptr, ptr %9, align 8
  %39 = load i32, ptr %10, align 4
  %40 = call zeroext i8 @tvb_get_uint8(ptr noundef %38, i32 noundef %39)
  %41 = zext i8 %40 to i32
  %42 = and i32 %41, 15
  %43 = trunc i32 %42 to i8
  store i8 %43, ptr @camel_pdu_type, align 1
  %44 = load ptr, ptr %9, align 8
  %45 = load i32, ptr %10, align 4
  %46 = add i32 %45, 1
  %47 = call zeroext i8 @tvb_get_uint8(ptr noundef %44, i32 noundef %46)
  %48 = zext i8 %47 to i32
  %49 = add i32 %48, 2
  %50 = trunc i32 %49 to i8
  store i8 %50, ptr @camel_pdu_size, align 1
  %51 = load ptr, ptr %11, align 8
  %52 = getelementptr inbounds nuw %struct._asn1_ctx_t, ptr %51, i32 0, i32 3
  %53 = load ptr, ptr %52, align 8
  %54 = getelementptr inbounds nuw %struct._packet_info, ptr %53, i32 0, i32 1
  %55 = load ptr, ptr %54, align 8
  %56 = load i8, ptr @camel_pdu_type, align 1
  %57 = zext i8 %56 to i32
  %58 = call ptr @val_to_str(i32 noundef %57, ptr noundef @camel_Component_vals, ptr noundef @.str.1477)
  call void @col_add_str(ptr noundef %55, i32 noundef 25, ptr noundef %58)
  %59 = load ptr, ptr %11, align 8
  %60 = getelementptr inbounds nuw %struct._asn1_ctx_t, ptr %59, i32 0, i32 3
  %61 = load ptr, ptr %60, align 8
  %62 = getelementptr inbounds nuw %struct._packet_info, ptr %61, i32 0, i32 1
  %63 = load ptr, ptr %62, align 8
  call void @col_append_str(ptr noundef %63, i32 noundef 25, ptr noundef @.str.1478)
  store i8 0, ptr @is_ExtensionField, align 1
  %64 = load ptr, ptr %9, align 8
  %65 = load i32, ptr %10, align 4
  %66 = load ptr, ptr %11, align 8
  %67 = load ptr, ptr %12, align 8
  %68 = load i32, ptr %13, align 4
  %69 = call i32 @dissect_camel_ROS(i1 noundef zeroext true, ptr noundef %64, i32 noundef %65, ptr noundef %66, ptr noundef %67, i32 noundef %68)
  store i32 %69, ptr %10, align 4
  %70 = load i32, ptr %10, align 4
  ret i32 %70
}

; Function Attrs: nounwind null_pointer_is_valid sspstrong uwtable
define hidden ptr @camelsrt_razinfo() #2 {
  %1 = alloca ptr, align 8
  call void @llvm.lifetime.start.p0(i64 8, ptr %1) #11
  %2 = load i32, ptr @camelsrt_global_current, align 4
  %3 = add i32 %2, 1
  store i32 %3, ptr @camelsrt_global_current, align 4
  %4 = load i32, ptr @camelsrt_global_current, align 4
  %5 = icmp eq i32 %4, 10
  br i1 %5, label %6, label %7

6:                                                ; preds = %0
  store i32 0, ptr @camelsrt_global_current, align 4
  br label %7

7:                                                ; preds = %6, %0
  %8 = load i32, ptr @camelsrt_global_current, align 4
  %9 = sext i32 %8 to i64
  %10 = getelementptr [10 x %struct.camelsrt_info_t], ptr @camelsrt_global_info, i64 0, i64 %9
  store ptr %10, ptr %1, align 8
  %11 = load ptr, ptr %1, align 8
  %12 = call ptr @memset.inline(ptr noundef %11, i32 noundef 0, i64 noundef 432) #11
  %13 = load ptr, ptr %1, align 8
  %14 = getelementptr inbounds nuw %struct.camelsrt_info_t, ptr %13, i32 0, i32 2
  store i8 -1, ptr %14, align 8
  %15 = load ptr, ptr %1, align 8
  call void @llvm.lifetime.end.p0(i64 8, ptr %1) #11
  ret ptr %15
}

; Function Attrs: null_pointer_is_valid sspstrong uwtable
define internal i32 @dissect_camel_all(i32 noundef %0, ptr noundef %1, ptr noundef %2, ptr noundef %3, ptr noundef %4, ptr noundef %5, ptr noundef %6) #0 {
  %8 = alloca i32, align 4
  %9 = alloca ptr, align 8
  %10 = alloca ptr, align 8
  %11 = alloca ptr, align 8
  %12 = alloca ptr, align 8
  %13 = alloca ptr, align 8
  %14 = alloca ptr, align 8
  %15 = alloca ptr, align 8
  %16 = alloca ptr, align 8
  %17 = alloca ptr, align 8
  %18 = alloca ptr, align 8
  %19 = alloca %struct._asn1_ctx_t, align 8
  store i32 %0, ptr %8, align 4
  store ptr %1, ptr %9, align 8
  store ptr %2, ptr %10, align 8
  store ptr %3, ptr %11, align 8
  store ptr %4, ptr %12, align 8
  store ptr %5, ptr %13, align 8
  store ptr %6, ptr %14, align 8
  call void @llvm.lifetime.start.p0(i64 8, ptr %15) #11
  call void @llvm.lifetime.start.p0(i64 8, ptr %16) #11
  store ptr null, ptr %16, align 8
  call void @llvm.lifetime.start.p0(i64 8, ptr %17) #11
  store ptr null, ptr %17, align 8
  call void @llvm.lifetime.start.p0(i64 8, ptr %18) #11
  %20 = load ptr, ptr %14, align 8
  store ptr %20, ptr %18, align 8
  call void @llvm.lifetime.start.p0(i64 208, ptr %19) #11
  %21 = load ptr, ptr %12, align 8
  call void @asn1_ctx_init(ptr noundef %19, i32 noundef 0, i1 noundef zeroext true, ptr noundef %21)
  %22 = load ptr, ptr %12, align 8
  %23 = getelementptr inbounds nuw %struct._packet_info, ptr %22, i32 0, i32 1
  %24 = load ptr, ptr %23, align 8
  %25 = load ptr, ptr %9, align 8
  call void @col_set_str(ptr noundef %24, i32 noundef 35, ptr noundef %25)
  %26 = load i32, ptr %8, align 4
  store i32 %26, ptr @camel_ver, align 4
  %27 = load ptr, ptr %13, align 8
  %28 = icmp ne ptr %27, null
  br i1 %28, label %29, label %39

29:                                               ; preds = %7
  %30 = load ptr, ptr %13, align 8
  %31 = load i32, ptr @proto_camel, align 4
  %32 = load ptr, ptr %11, align 8
  %33 = call ptr @proto_tree_add_item(ptr noundef %30, i32 noundef %31, ptr noundef %32, i32 noundef 0, i32 noundef -1, i32 noundef 0)
  store ptr %33, ptr %15, align 8
  %34 = load ptr, ptr %15, align 8
  %35 = load i32, ptr @ett_camel, align 4
  %36 = call ptr @proto_item_add_subtree(ptr noundef %34, i32 noundef %35)
  store ptr %36, ptr %16, align 8
  %37 = load ptr, ptr %15, align 8
  %38 = load ptr, ptr %10, align 8
  call void (ptr, ptr, ...) @proto_item_append_text(ptr noundef %37, ptr noundef @.str.1475, ptr noundef %38)
  br label %39

39:                                               ; preds = %29, %7
  %40 = call ptr @camelsrt_razinfo()
  store ptr %40, ptr @gp_camelsrt_info, align 8
  %41 = load ptr, ptr %11, align 8
  %42 = load ptr, ptr %16, align 8
  %43 = load ptr, ptr %18, align 8
  %44 = call i32 @dissect_camel_camelPDU(i1 noundef zeroext false, ptr noundef %41, i32 noundef 0, ptr noundef %19, ptr noundef %42, i32 noundef -1, ptr noundef %43)
  %45 = load ptr, ptr @gp_camelsrt_info, align 8
  %46 = getelementptr inbounds nuw %struct.camelsrt_info_t, ptr %45, i32 0, i32 1
  %47 = load ptr, ptr %46, align 8
  %48 = icmp ne ptr %47, null
  br i1 %48, label %49, label %68

49:                                               ; preds = %39
  %50 = load i8, ptr @gcamel_DisplaySRT, align 1, !range !6, !noundef !7
  %51 = trunc i8 %50 to i1
  br i1 %51, label %52, label %60

52:                                               ; preds = %49
  %53 = load ptr, ptr %16, align 8
  %54 = icmp ne ptr %53, null
  br i1 %54, label %55, label %60

55:                                               ; preds = %52
  %56 = load ptr, ptr %16, align 8
  %57 = load ptr, ptr %11, align 8
  %58 = load i32, ptr @ett_camel_stat, align 4
  %59 = call ptr @proto_tree_add_subtree(ptr noundef %56, ptr noundef %57, i32 noundef 0, i32 noundef 0, i32 noundef %58, ptr noundef null, ptr noundef @.str.1476)
  store ptr %59, ptr %17, align 8
  br label %60

60:                                               ; preds = %55, %52, %49
  %61 = load ptr, ptr %11, align 8
  %62 = load ptr, ptr %12, align 8
  %63 = load ptr, ptr %17, align 8
  %64 = load ptr, ptr @gp_camelsrt_info, align 8
  call void @camelsrt_call_matching(ptr noundef %61, ptr noundef %62, ptr noundef %63, ptr noundef %64)
  %65 = load i32, ptr @camel_tap, align 4
  %66 = load ptr, ptr %12, align 8
  %67 = load ptr, ptr @gp_camelsrt_info, align 8
  call void @tap_queue_packet(i32 noundef %65, ptr noundef %66, ptr noundef %67)
  br label %68

68:                                               ; preds = %60, %39
  %69 = load ptr, ptr %11, align 8
  %70 = call i32 @tvb_captured_length(ptr noundef %69)
  call void @llvm.lifetime.end.p0(i64 208, ptr %19) #11
  call void @llvm.lifetime.end.p0(i64 8, ptr %18) #11
  call void @llvm.lifetime.end.p0(i64 8, ptr %17) #11
  call void @llvm.lifetime.end.p0(i64 8, ptr %16) #11
  call void @llvm.lifetime.end.p0(i64 8, ptr %15) #11
  ret i32 %70
}