; Function Attrs: null_pointer_is_valid sspstrong uwtable
define internal fastcc i32 @dissect_camel_all(i32 noundef range(i32 1, 5) %0, ptr noundef %1, ptr noundef %2, ptr noundef %3, ptr noundef %4, ptr noundef %5, ptr noundef readonly captures(address_is_null) %6) unnamed_addr #0 {
  %8 = alloca %struct._asn1_ctx_t, align 8
  call void @llvm.lifetime.start.p0(i64 208, ptr nonnull %8) #12
  call void @asn1_ctx_init(ptr noundef nonnull %8, i32 noundef 0, i1 noundef zeroext true, ptr noundef %4)
  %9 = getelementptr inbounds nuw i8, ptr %4, i64 8
  %10 = load ptr, ptr %9, align 8
  call void @col_set_str(ptr noundef %10, i32 noundef 35, ptr noundef %1)
  store i32 %0, ptr @camel_ver, align 4
  %.not = icmp eq ptr %5, null
  br i1 %.not, label %16, label %11

11:                                               ; preds = %7
  %12 = load i32, ptr @proto_camel, align 4
  %13 = call ptr @proto_tree_add_item(ptr noundef nonnull %5, i32 noundef %12, ptr noundef %3, i32 noundef 0, i32 noundef -1, i32 noundef 0)
  %14 = load i32, ptr @ett_camel, align 4
  %15 = call ptr @proto_item_add_subtree(ptr noundef %13, i32 noundef %14)
  call void (ptr, ptr, ...) @proto_item_append_text(ptr noundef %13, ptr noundef nonnull @.str.1475, ptr noundef %2)
  br label %16

16:                                               ; preds = %11, %7
  %.0 = phi ptr [ %15, %11 ], [ null, %7 ]
  %17 = load i32, ptr @camelsrt_global_current, align 4
  %18 = add i32 %17, 1
  %19 = icmp eq i32 %18, 10
  %spec.store.select.i = select i1 %19, i32 0, i32 %18
  store i32 %spec.store.select.i, ptr @camelsrt_global_current, align 4
  %20 = sext i32 %spec.store.select.i to i64
  %.idx.i = mul nsw i64 %20, 432
  %21 = getelementptr [10 x %struct.camelsrt_info_t], ptr @camelsrt_global_info, i64 0, i64 %20
  %22 = call i64 @llvm.usub.sat.i64(i64 4320, i64 %.idx.i)
  %23 = call ptr @__memset_chk(ptr noundef %21, i32 noundef 0, i64 noundef 432, i64 noundef %22) #12
  %24 = getelementptr inbounds nuw i8, ptr %21, i64 16
  store i8 -1, ptr %24, align 16
  store ptr %21, ptr @gp_camelsrt_info, align 8
  store i32 0, ptr @opcode, align 4
  %.not.i = icmp eq ptr %6, null
  br i1 %.not.i, label %dissect_camel_camelPDU.exit, label %25

25:                                               ; preds = %16
  %26 = getelementptr inbounds nuw i8, ptr %6, i64 24
  %27 = load ptr, ptr %26, align 8
  %28 = getelementptr inbounds nuw i8, ptr %21, i64 8
  store ptr %27, ptr %28, align 8
  %.not16.i = icmp eq ptr %27, null
  br i1 %.not16.i, label %dissect_camel_camelPDU.exit, label %29

29:                                               ; preds = %25
  %30 = getelementptr inbounds nuw i8, ptr %27, i64 8
  %31 = load i32, ptr %30, align 8
  store i32 %31, ptr %21, align 16
  br label %dissect_camel_camelPDU.exit

dissect_camel_camelPDU.exit:                      ; preds = %16, %25, %29
  %32 = call zeroext i8 @tvb_get_uint8(ptr noundef %3, i32 noundef 0)
  %33 = and i8 %32, 15
  store i8 %33, ptr @camel_pdu_type, align 1
  %34 = call zeroext i8 @tvb_get_uint8(ptr noundef %3, i32 noundef 1)
  %35 = getelementptr inbounds nuw i8, ptr %8, i64 16
  %36 = load ptr, ptr %35, align 8
  %37 = getelementptr inbounds nuw i8, ptr %36, i64 8
  %38 = load ptr, ptr %37, align 8
  %39 = load i8, ptr @camel_pdu_type, align 1
  %40 = zext nneg i8 %39 to i32
  %41 = call ptr @val_to_str(i32 noundef %40, ptr noundef nonnull @camel_Component_vals, ptr noundef nonnull @.str.1477)
  call void @col_add_str(ptr noundef %38, i32 noundef 25, ptr noundef %41)
  %42 = load ptr, ptr %35, align 8
  %43 = getelementptr inbounds nuw i8, ptr %42, i64 8
  %44 = load ptr, ptr %43, align 8
  call void @col_append_str(ptr noundef %44, i32 noundef 25, ptr noundef nonnull @.str.1478)
  store i8 0, ptr @is_ExtensionField, align 1
  %45 = load i32, ptr @ett_camel_ROS, align 4
  %46 = call i32 @dissect_ber_choice(ptr noundef nonnull %8, ptr noundef %.0, ptr noundef %3, i32 noundef 0, ptr noundef nonnull @ROS_choice, i32 noundef -1, i32 noundef %45, ptr noundef null)
  %47 = load ptr, ptr @gp_camelsrt_info, align 8
  %48 = getelementptr inbounds nuw i8, ptr %47, i64 8
  %49 = load ptr, ptr %48, align 8
  %.not24 = icmp eq ptr %49, null
  br i1 %.not24, label %61, label %50

50:                                               ; preds = %dissect_camel_camelPDU.exit
  %51 = load i8, ptr @gcamel_DisplaySRT, align 1, !range !6, !noundef !7
  %52 = trunc nuw i8 %51 to i1
  %53 = icmp ne ptr %.0, null
  %or.cond = select i1 %52, i1 %53, i1 false
  br i1 %or.cond, label %54, label %57

54:                                               ; preds = %50
  %55 = load i32, ptr @ett_camel_stat, align 4
  %56 = call ptr @proto_tree_add_subtree(ptr noundef nonnull %.0, ptr noundef %3, i32 noundef 0, i32 noundef 0, i32 noundef %55, ptr noundef null, ptr noundef nonnull @.str.1476)
  %.pre = load ptr, ptr @gp_camelsrt_info, align 8
  br label %57

57:                                               ; preds = %54, %50
  %58 = phi ptr [ %.pre, %54 ], [ %47, %50 ]
  %.022 = phi ptr [ %56, %54 ], [ null, %50 ]
  call void @camelsrt_call_matching(ptr noundef %3, ptr noundef %4, ptr noundef %.022, ptr noundef %58)
  %59 = load i32, ptr @camel_tap, align 4
  %60 = load ptr, ptr @gp_camelsrt_info, align 8
  call void @tap_queue_packet(i32 noundef %59, ptr noundef %4, ptr noundef %60)
  br label %61

61:                                               ; preds = %57, %dissect_camel_camelPDU.exit
  %62 = call i32 @tvb_captured_length(ptr noundef %3)
  call void @llvm.lifetime.end.p0(i64 208, ptr nonnull %8) #12
  ret i32 %62
}